; Function Attrs: nounwind uwtable
define internal fastcc zeroext i1 @ExecDeletePrologue(ptr noundef nonnull %0, ptr noundef %1, ptr noundef %2, ptr noundef %3, ptr noundef %4, ptr noundef %5) unnamed_addr #0 {
  %.not = icmp eq ptr %5, null
  br i1 %.not, label %8, label %7

7:                                                ; preds = %6
  store i32 0, ptr %5, align 4
  br label %8

8:                                                ; preds = %7, %6
  %9 = getelementptr inbounds nuw i8, ptr %1, i64 96
  %10 = load ptr, ptr %9, align 8
  %.not17 = icmp eq ptr %10, null
  br i1 %.not17, label %64, label %11

11:                                               ; preds = %8
  %12 = getelementptr inbounds nuw i8, ptr %10, i64 22
  %13 = load i8, ptr %12, align 2, !range !4, !noundef !5
  %14 = trunc nuw i8 %13 to i1
  br i1 %14, label %15, label %64

15:                                               ; preds = %11
  %16 = getelementptr inbounds nuw i8, ptr %0, i64 16
  %17 = load ptr, ptr %16, align 8
  %18 = getelementptr inbounds nuw i8, ptr %17, i64 328
  %19 = load ptr, ptr %18, align 8
  %.not18 = icmp eq ptr %19, null
  br i1 %.not18, label %58, label %20

20:                                               ; preds = %15
  %21 = getelementptr inbounds nuw i8, ptr %17, i64 336
  %22 = load ptr, ptr %21, align 8
  %23 = getelementptr inbounds nuw i8, ptr %22, i64 4
  %.not28.i = icmp eq ptr %22, null
  %24 = getelementptr inbounds nuw i8, ptr %19, i64 4
  %25 = getelementptr inbounds nuw i8, ptr %19, i64 16
  %26 = getelementptr inbounds nuw i8, ptr %22, i64 16
  br i1 %.not28.i, label %ExecPendingInserts.exit, label %.split.split.i

.split.split.i:                                   ; preds = %20, %43
  %indvars.iv.i = phi i64 [ %indvars.iv.next.i, %43 ], [ 0, %20 ]
  %27 = load i32, ptr %24, align 4
  %28 = sext i32 %27 to i64
  %29 = icmp slt i64 %indvars.iv.i, %28
  br i1 %29, label %30, label %33

30:                                               ; preds = %.split.split.i
  %31 = load ptr, ptr %25, align 8
  %32 = getelementptr inbounds nuw %union.ListCell, ptr %31, i64 %indvars.iv.i
  br label %33

33:                                               ; preds = %30, %.split.split.i
  %34 = phi ptr [ %32, %30 ], [ null, %.split.split.i ]
  %35 = load i32, ptr %23, align 4
  %36 = sext i32 %35 to i64
  %37 = icmp slt i64 %indvars.iv.i, %36
  br i1 %37, label %38, label %.thread.loopexit.i

38:                                               ; preds = %33
  %39 = load ptr, ptr %26, align 8
  %40 = icmp ne ptr %34, null
  %41 = icmp ne ptr %39, null
  %42 = select i1 %40, i1 %41, i1 false
  br i1 %42, label %43, label %.thread.loopexit.i

.thread.loopexit.i:                               ; preds = %38, %33
  %.pre.i = load ptr, ptr %18, align 8
  br label %ExecPendingInserts.exit

43:                                               ; preds = %38
  %44 = getelementptr inbounds nuw %union.ListCell, ptr %39, i64 %indvars.iv.i
  %45 = load ptr, ptr %34, align 8
  %46 = load ptr, ptr %44, align 8
  %47 = getelementptr inbounds nuw i8, ptr %45, i64 192
  %48 = load ptr, ptr %47, align 8
  %49 = getelementptr inbounds nuw i8, ptr %45, i64 200
  %50 = load ptr, ptr %49, align 8
  %51 = getelementptr inbounds nuw i8, ptr %45, i64 180
  %52 = load i32, ptr %51, align 4
  %53 = getelementptr inbounds nuw i8, ptr %46, i64 204
  %54 = load i8, ptr %53, align 4, !range !4, !noundef !5
  %55 = trunc nuw i8 %54 to i1
  tail call fastcc void @ExecBatchInsert(ptr noundef %46, ptr noundef %45, ptr noundef %48, ptr noundef %50, i32 noundef %52, ptr noundef %17, i1 noundef zeroext %55)
  %indvars.iv.next.i = add nuw nsw i64 %indvars.iv.i, 1
  br label %.split.split.i, !llvm.loop !15

ExecPendingInserts.exit:                          ; preds = %20, %.thread.loopexit.i
  %56 = phi ptr [ %.pre.i, %.thread.loopexit.i ], [ %19, %20 ]
  tail call void @list_free(ptr noundef %56) #9
  %57 = load ptr, ptr %21, align 8
  tail call void @list_free(ptr noundef %57) #9
  tail call void @llvm.memset.p0.i64(ptr noundef nonnull align 8 dereferenceable(16) %18, i8 0, i64 16, i1 false)
  %.pre = load ptr, ptr %16, align 8
  br label %58

58:                                               ; preds = %ExecPendingInserts.exit, %15
  %59 = phi ptr [ %.pre, %ExecPendingInserts.exit ], [ %17, %15 ]
  %60 = getelementptr inbounds nuw i8, ptr %0, i64 8
  %61 = load ptr, ptr %60, align 8
  %62 = getelementptr inbounds nuw i8, ptr %0, i64 32
  %63 = tail call zeroext i1 @ExecBRDeleteTriggers(ptr noundef %59, ptr noundef %61, ptr noundef %1, ptr noundef %2, ptr noundef %3, ptr noundef %4, ptr noundef %5, ptr noundef nonnull %62) #9
  br label %64

64:                                               ; preds = %8, %11, %58
  %.0 = phi i1 [ %63, %58 ], [ true, %11 ], [ true, %8 ]
  ret i1 %.0
}